; Function Attrs: nounwind uwtable
define hidden void @phpdbg_set_addr_watchpoint(ptr noundef %0, i64 noundef %1, ptr noundef %2) local_unnamed_addr #0 {
  store ptr %0, ptr %2, align 8
  %4 = getelementptr inbounds i8, ptr %2, i64 8
  store i64 %1, ptr %4, align 8
  %5 = getelementptr inbounds i8, ptr %2, i64 24
  store ptr null, ptr %5, align 8
  %6 = getelementptr inbounds i8, ptr %2, i64 88
  store ptr null, ptr %6, align 8
  %7 = getelementptr inbounds i8, ptr %2, i64 32
  tail call void @_zend_hash_init(ptr noundef nonnull %7, i32 noundef 8, ptr noundef null, i1 noundef zeroext false) #17
  ret void
}